target datalayout = "e-m:e-p270:32:32-p271:32:32-p272:64:64-i64:64-i128:128-f80:128-n8:16:32:64-S128"
target triple = "x86_64-unknown-linux-gnu"

%"class.std::__shared_count" = type { ptr }
%"class.OpenColorIO_v2_4dev::GenericCache" = type { ptr, i8, i8, %"class.std::mutex", %"class.std::map" }
%"class.std::mutex" = type { %"class.std::__mutex_base" }
%"class.std::__mutex_base" = type { %union.pthread_mutex_t }
%union.pthread_mutex_t = type { %struct.__pthread_mutex_s }
%struct.__pthread_mutex_s = type { i32, i32, i32, i32, i32, i16, i16, %struct.__pthread_internal_list }
%struct.__pthread_internal_list = type { ptr, ptr }
%"class.std::map" = type { %"class.std::_Rb_tree" }
%"class.std::_Rb_tree" = type { %"struct.std::_Rb_tree<unsigned long, std::pair<const unsigned long, std::shared_ptr<OpenColorIO_v2_4dev::Processor>>, std::_Select1st<std::pair<const unsigned long, std::shared_ptr<OpenColorIO_v2_4dev::Processor>>>, std::less<unsigned long>>::_Rb_tree_impl" }
%"struct.std::_Rb_tree<unsigned long, std::pair<const unsigned long, std::shared_ptr<OpenColorIO_v2_4dev::Processor>>, std::_Select1st<std::pair<const unsigned long, std::shared_ptr<OpenColorIO_v2_4dev::Processor>>>, std::less<unsigned long>>::_Rb_tree_impl" = type { %"struct.std::_Rb_tree_key_compare", %"struct.std::_Rb_tree_header" }
%"struct.std::_Rb_tree_key_compare" = type { %"struct.std::less" }
%"struct.std::less" = type { i8 }
%"struct.std::_Rb_tree_header" = type { %"struct.std::_Rb_tree_node_base", i64 }
%"struct.std::_Rb_tree_node_base" = type { i32, ptr, ptr, ptr }
%"class.OpenColorIO_v2_4dev::GenericCache.1" = type { ptr, i8, i8, %"class.std::mutex", %"class.std::map.2" }
%"class.std::map.2" = type { %"class.std::_Rb_tree.3" }
%"class.std::_Rb_tree.3" = type { %"struct.std::_Rb_tree<unsigned long, std::pair<const unsigned long, std::shared_ptr<OpenColorIO_v2_4dev::GPUProcessor>>, std::_Select1st<std::pair<const unsigned long, std::shared_ptr<OpenColorIO_v2_4dev::GPUProcessor>>>, std::less<unsigned long>>::_Rb_tree_impl" }
%"struct.std::_Rb_tree<unsigned long, std::pair<const unsigned long, std::shared_ptr<OpenColorIO_v2_4dev::GPUProcessor>>, std::_Select1st<std::pair<const unsigned long, std::shared_ptr<OpenColorIO_v2_4dev::GPUProcessor>>>, std::less<unsigned long>>::_Rb_tree_impl" = type { %"struct.std::_Rb_tree_key_compare", %"struct.std::_Rb_tree_header" }
%"class.OpenColorIO_v2_4dev::GenericCache.8" = type { ptr, i8, i8, %"class.std::mutex", %"class.std::map.9" }
%"class.std::map.9" = type { %"class.std::_Rb_tree.10" }
%"class.std::_Rb_tree.10" = type { %"struct.std::_Rb_tree<unsigned long, std::pair<const unsigned long, std::shared_ptr<OpenColorIO_v2_4dev::CPUProcessor>>, std::_Select1st<std::pair<const unsigned long, std::shared_ptr<OpenColorIO_v2_4dev::CPUProcessor>>>, std::less<unsigned long>>::_Rb_tree_impl" }
%"struct.std::_Rb_tree<unsigned long, std::pair<const unsigned long, std::shared_ptr<OpenColorIO_v2_4dev::CPUProcessor>>, std::_Select1st<std::pair<const unsigned long, std::shared_ptr<OpenColorIO_v2_4dev::CPUProcessor>>>, std::less<unsigned long>>::_Rb_tree_impl" = type { %"struct.std::_Rb_tree_key_compare", %"struct.std::_Rb_tree_header" }
%"class.std::shared_ptr" = type { %"class.std::__shared_ptr" }
%"class.std::__shared_ptr" = type { ptr, %"class.std::__shared_count" }
%"class.std::__cxx11::basic_string" = type { %"struct.std::__cxx11::basic_string<char>::_Alloc_hider", i64, %union.anon }
%"struct.std::__cxx11::basic_string<char>::_Alloc_hider" = type { ptr }
%union.anon = type { i64, [8 x i8] }
%"class.OpenColorIO_v2_4dev::Processor::Impl" = type { %"class.std::shared_ptr", %"class.OpenColorIO_v2_4dev::OpRcPtrVec", %"class.std::__cxx11::basic_string", %"class.std::mutex", i32, %"class.OpenColorIO_v2_4dev::ProcessorCache", %"class.OpenColorIO_v2_4dev::ProcessorCache.0", %"class.OpenColorIO_v2_4dev::ProcessorCache.7" }
%"class.OpenColorIO_v2_4dev::OpRcPtrVec" = type { %"class.std::vector.30", %"class.OpenColorIO_v2_4dev::FormatMetadataImpl" }
%"class.std::vector.30" = type { %"struct.std::_Vector_base.31" }
%"struct.std::_Vector_base.31" = type { %"struct.std::_Vector_base<std::shared_ptr<OpenColorIO_v2_4dev::Op>, std::allocator<std::shared_ptr<OpenColorIO_v2_4dev::Op>>>::_Vector_impl" }
%"struct.std::_Vector_base<std::shared_ptr<OpenColorIO_v2_4dev::Op>, std::allocator<std::shared_ptr<OpenColorIO_v2_4dev::Op>>>::_Vector_impl" = type { %"struct.std::_Vector_base<std::shared_ptr<OpenColorIO_v2_4dev::Op>, std::allocator<std::shared_ptr<OpenColorIO_v2_4dev::Op>>>::_Vector_impl_data" }
%"struct.std::_Vector_base<std::shared_ptr<OpenColorIO_v2_4dev::Op>, std::allocator<std::shared_ptr<OpenColorIO_v2_4dev::Op>>>::_Vector_impl_data" = type { ptr, ptr, ptr }
%"class.OpenColorIO_v2_4dev::FormatMetadataImpl" = type { %"class.OpenColorIO_v2_4dev::FormatMetadata", %"class.std::__cxx11::basic_string", %"class.std::__cxx11::basic_string", %"class.std::vector.35", %"class.std::vector.40" }
%"class.OpenColorIO_v2_4dev::FormatMetadata" = type { ptr }
%"class.std::vector.35" = type { %"struct.std::_Vector_base.36" }
%"struct.std::_Vector_base.36" = type { %"struct.std::_Vector_base<std::pair<std::__cxx11::basic_string<char>, std::__cxx11::basic_string<char>>, std::allocator<std::pair<std::__cxx11::basic_string<char>, std::__cxx11::basic_string<char>>>>::_Vector_impl" }
%"struct.std::_Vector_base<std::pair<std::__cxx11::basic_string<char>, std::__cxx11::basic_string<char>>, std::allocator<std::pair<std::__cxx11::basic_string<char>, std::__cxx11::basic_string<char>>>>::_Vector_impl" = type { %"struct.std::_Vector_base<std::pair<std::__cxx11::basic_string<char>, std::__cxx11::basic_string<char>>, std::allocator<std::pair<std::__cxx11::basic_string<char>, std::__cxx11::basic_string<char>>>>::_Vector_impl_data" }
%"struct.std::_Vector_base<std::pair<std::__cxx11::basic_string<char>, std::__cxx11::basic_string<char>>, std::allocator<std::pair<std::__cxx11::basic_string<char>, std::__cxx11::basic_string<char>>>>::_Vector_impl_data" = type { ptr, ptr, ptr }
%"class.std::vector.40" = type { %"struct.std::_Vector_base.41" }
%"struct.std::_Vector_base.41" = type { %"struct.std::_Vector_base<OpenColorIO_v2_4dev::FormatMetadataImpl, std::allocator<OpenColorIO_v2_4dev::FormatMetadataImpl>>::_Vector_impl" }
%"struct.std::_Vector_base<OpenColorIO_v2_4dev::FormatMetadataImpl, std::allocator<OpenColorIO_v2_4dev::FormatMetadataImpl>>::_Vector_impl" = type { %"struct.std::_Vector_base<OpenColorIO_v2_4dev::FormatMetadataImpl, std::allocator<OpenColorIO_v2_4dev::FormatMetadataImpl>>::_Vector_impl_data" }
%"struct.std::_Vector_base<OpenColorIO_v2_4dev::FormatMetadataImpl, std::allocator<OpenColorIO_v2_4dev::FormatMetadataImpl>>::_Vector_impl_data" = type { ptr, ptr, ptr }
%"class.OpenColorIO_v2_4dev::ProcessorCache" = type { %"class.OpenColorIO_v2_4dev::GenericCache" }
%"class.OpenColorIO_v2_4dev::ProcessorCache.0" = type { %"class.OpenColorIO_v2_4dev::GenericCache.1" }
%"class.OpenColorIO_v2_4dev::ProcessorCache.7" = type { %"class.OpenColorIO_v2_4dev::GenericCache.8" }

@_ZN19OpenColorIO_v2_4dev14ProcessorCacheImSt10shared_ptrINS_9ProcessorEEEC1Ev = weak_odr hidden unnamed_addr alias void (ptr), ptr @_ZN19OpenColorIO_v2_4dev14ProcessorCacheImSt10shared_ptrINS_9ProcessorEEEC2Ev
@_ZN19OpenColorIO_v2_4dev14ProcessorCacheImSt10shared_ptrINS_12GPUProcessorEEEC1Ev = weak_odr hidden unnamed_addr alias void (ptr), ptr @_ZN19OpenColorIO_v2_4dev14ProcessorCacheImSt10shared_ptrINS_12GPUProcessorEEEC2Ev
@_ZN19OpenColorIO_v2_4dev14ProcessorCacheImSt10shared_ptrINS_12CPUProcessorEEEC1Ev = weak_odr hidden unnamed_addr alias void (ptr), ptr @_ZN19OpenColorIO_v2_4dev14ProcessorCacheImSt10shared_ptrINS_12CPUProcessorEEEC2Ev

; Function Attrs: mustprogress nounwind uwtable
define linkonce_odr hidden void @_ZNSt12__mutex_baseC2Ev(ptr noundef nonnull align 8 dereferenceable(40) %this) unnamed_addr #4 comdat align 2 {
entry:
  %this.addr = alloca ptr, align 8
  store ptr %this, ptr %this.addr, align 8
  %this1 = load ptr, ptr %this.addr, align 8
  %_M_mutex = getelementptr inbounds %"class.std::__mutex_base", ptr %this1, i32 0, i32 0
  call void @llvm.memset.p0.i64(ptr align 8 %_M_mutex, i8 0, i64 40, i1 false)
  %__kind = getelementptr inbounds %struct.__pthread_mutex_s, ptr %_M_mutex, i32 0, i32 4
  store i32 0, ptr %__kind, align 8
  ret void
}

; Function Attrs: mustprogress nounwind uwtable
define linkonce_odr hidden void @_ZNSt5mutexC2Ev(ptr noundef nonnull align 8 dereferenceable(40) %this) unnamed_addr #4 comdat align 2 {
entry:
  %this.addr = alloca ptr, align 8
  store ptr %this, ptr %this.addr, align 8
  %this1 = load ptr, ptr %this.addr, align 8
  call void @_ZNSt12__mutex_baseC2Ev(ptr noundef nonnull align 8 dereferenceable(40) %this1) #13
  ret void
}

; Function Attrs: mustprogress uwtable
define void @_ZN19OpenColorIO_v2_4dev9Processor4ImplC2Ev(ptr noundef nonnull align 8 dereferenceable(552) %this) unnamed_addr #0 align 2 personality ptr @__gxx_personality_v0 {
entry:
  %this.addr = alloca ptr, align 8
  %exn.slot = alloca ptr, align 8
  %ehselector.slot = alloca i32, align 4
  store ptr %this, ptr %this.addr, align 8
  %this1 = load ptr, ptr %this.addr, align 8
  %m_metadata = getelementptr inbounds %"class.OpenColorIO_v2_4dev::Processor::Impl", ptr %this1, i32 0, i32 0
  call void @_ZN19OpenColorIO_v2_4dev17ProcessorMetadata6CreateEv(ptr sret(%"class.std::shared_ptr") align 8 %m_metadata)
  %m_ops = getelementptr inbounds %"class.OpenColorIO_v2_4dev::Processor::Impl", ptr %this1, i32 0, i32 1
  invoke void @_ZN19OpenColorIO_v2_4dev10OpRcPtrVecC1Ev(ptr noundef nonnull align 8 dereferenceable(144) %m_ops)
          to label %invoke.cont unwind label %lpad

invoke.cont:                                      ; preds = %entry
  %m_cacheID = getelementptr inbounds %"class.OpenColorIO_v2_4dev::Processor::Impl", ptr %this1, i32 0, i32 2
  call void @_ZNSt7__cxx1112basic_stringIcSt11char_traitsIcESaIcEEC1Ev(ptr noundef nonnull align 8 dereferenceable(32) %m_cacheID) #13
  %m_resultsCacheMutex = getelementptr inbounds %"class.OpenColorIO_v2_4dev::Processor::Impl", ptr %this1, i32 0, i32 3
  call void @_ZNSt5mutexC2Ev(ptr noundef nonnull align 8 dereferenceable(40) %m_resultsCacheMutex) #13
  %m_cacheFlags = getelementptr inbounds %"class.OpenColorIO_v2_4dev::Processor::Impl", ptr %this1, i32 0, i32 4
  store i32 3, ptr %m_cacheFlags, align 8
  %m_optProcessorCache = getelementptr inbounds %"class.OpenColorIO_v2_4dev::Processor::Impl", ptr %this1, i32 0, i32 5
  invoke void @_ZN19OpenColorIO_v2_4dev14ProcessorCacheImSt10shared_ptrINS_9ProcessorEEEC1Ev(ptr noundef nonnull align 8 dereferenceable(104) %m_optProcessorCache)
          to label %invoke.cont3 unwind label %lpad2

invoke.cont3:                                     ; preds = %invoke.cont
  %m_gpuProcessorCache = getelementptr inbounds %"class.OpenColorIO_v2_4dev::Processor::Impl", ptr %this1, i32 0, i32 6
  invoke void @_ZN19OpenColorIO_v2_4dev14ProcessorCacheImSt10shared_ptrINS_12GPUProcessorEEEC1Ev(ptr noundef nonnull align 8 dereferenceable(104) %m_gpuProcessorCache)
          to label %invoke.cont5 unwind label %lpad4

invoke.cont5:                                     ; preds = %invoke.cont3
  %m_cpuProcessorCache = getelementptr inbounds %"class.OpenColorIO_v2_4dev::Processor::Impl", ptr %this1, i32 0, i32 7
  invoke void @_ZN19OpenColorIO_v2_4dev14ProcessorCacheImSt10shared_ptrINS_12CPUProcessorEEEC1Ev(ptr noundef nonnull align 8 dereferenceable(104) %m_cpuProcessorCache)
          to label %invoke.cont7 unwind label %lpad6

invoke.cont7:                                     ; preds = %invoke.cont5
  ret void

lpad:                                             ; preds = %entry
  %0 = landingpad { ptr, i32 }
          cleanup
  %1 = extractvalue { ptr, i32 } %0, 0
  store ptr %1, ptr %exn.slot, align 8
  %2 = extractvalue { ptr, i32 } %0, 1
  store i32 %2, ptr %ehselector.slot, align 4
  br label %ehcleanup10

lpad2:                                            ; preds = %invoke.cont
  %3 = landingpad { ptr, i32 }
          cleanup
  %4 = extractvalue { ptr, i32 } %3, 0
  store ptr %4, ptr %exn.slot, align 8
  %5 = extractvalue { ptr, i32 } %3, 1
  store i32 %5, ptr %ehselector.slot, align 4
  br label %ehcleanup8

lpad4:                                            ; preds = %invoke.cont3
  %6 = landingpad { ptr, i32 }
          cleanup
  %7 = extractvalue { ptr, i32 } %6, 0
  store ptr %7, ptr %exn.slot, align 8
  %8 = extractvalue { ptr, i32 } %6, 1
  store i32 %8, ptr %ehselector.slot, align 4
  br label %ehcleanup

lpad6:                                            ; preds = %invoke.cont5
  %9 = landingpad { ptr, i32 }
          cleanup
  %10 = extractvalue { ptr, i32 } %9, 0
  store ptr %10, ptr %exn.slot, align 8
  %11 = extractvalue { ptr, i32 } %9, 1
  store i32 %11, ptr %ehselector.slot, align 4
  call void @_ZN19OpenColorIO_v2_4dev14ProcessorCacheImSt10shared_ptrINS_12GPUProcessorEEED2Ev(ptr noundef nonnull align 8 dereferenceable(104) %m_gpuProcessorCache) #13
  br label %ehcleanup

ehcleanup:                                        ; preds = %lpad6, %lpad4
  call void @_ZN19OpenColorIO_v2_4dev14ProcessorCacheImSt10shared_ptrINS_9ProcessorEEED2Ev(ptr noundef nonnull align 8 dereferenceable(104) %m_optProcessorCache) #13
  br label %ehcleanup8

ehcleanup8:                                       ; preds = %ehcleanup, %lpad2
  call void @_ZNSt7__cxx1112basic_stringIcSt11char_traitsIcESaIcEED1Ev(ptr noundef nonnull align 8 dereferenceable(32) %m_cacheID) #13
  call void @_ZN19OpenColorIO_v2_4dev10OpRcPtrVecD2Ev(ptr noundef nonnull align 8 dereferenceable(144) %m_ops) #13
  br label %ehcleanup10

ehcleanup10:                                      ; preds = %ehcleanup8, %lpad
  call void @_ZNSt10shared_ptrIN19OpenColorIO_v2_4dev17ProcessorMetadataEED2Ev(ptr noundef nonnull align 8 dereferenceable(16) %m_metadata) #13
  br label %eh.resume

eh.resume:                                        ; preds = %ehcleanup10
  %exn = load ptr, ptr %exn.slot, align 8
  %sel = load i32, ptr %ehselector.slot, align 4
  %lpad.val = insertvalue { ptr, i32 } poison, ptr %exn, 0
  %lpad.val11 = insertvalue { ptr, i32 } %lpad.val, i32 %sel, 1
  resume { ptr, i32 } %lpad.val11
}